Certificate:
    Data:
        Version: 3 (0x2)
        Serial Number: 3 (0x3)
        Signature Algorithm: sha256WithRSAEncryption
        Issuer: C=FR, ST=Radius, L=Somewhere, O=Example Inc./emailAddress=admin@example.org, CN=Example Certificate Authority
        Validity
            Not Before: May  1 23:09:26 2023 GMT
            Not After : Jun 30 23:09:26 2023 GMT
        Subject: C=FR, ST=Radius, O=Example Inc., CN=Example Server Certificate/emailAddress=admin@example.org
        Subject Public Key Info:
            Public Key Algorithm: rsaEncryption
                Public-Key: (2048 bit)
                Modulus:
                    00:ba:38:f3:26:27:2e:61:9e:3e:0f:99:4b:72:54:
                    b1:ad:79:39:e9:54:87:95:83:63:33:a5:e6:9a:c0:
                    63:eb:8e:5c:ba:0f:19:ff:d4:00:e0:cc:11:00:36:
                    79:78:b8:df:f6:c8:58:37:d0:f4:85:fa:2c:21:f0:
                    e7:82:aa:ec:3c:fc:ce:12:ee:fe:71:a1:0d:3e:6f:
                    5f:94:f2:b9:45:5e:e3:b5:de:cf:13:9c:79:02:26:
                    c2:4c:83:af:fc:96:fa:bb:fd:9a:df:ab:37:0b:65:
                    9d:f9:84:9e:16:9a:0d:76:e8:db:b1:93:5f:5d:1c:
                    1a:20:7a:fb:d0:77:72:f4:29:1e:f1:ef:0c:a2:40:
                    cc:79:aa:77:a0:f1:5c:a8:11:25:ad:b3:76:cd:0c:
                    ad:f6:ec:ea:9e:14:d5:80:1b:f9:22:82:7b:ff:ec:
                    81:e2:1a:48:f6:cb:5b:af:d6:23:3f:e3:49:b2:f8:
                    20:b1:ac:4d:c5:38:68:4a:9d:62:16:c5:00:21:65:
                    7b:eb:b5:90:64:75:1e:fa:5e:82:c4:17:c1:ea:ad:
                    bb:26:9a:cf:5e:e5:f0:d9:b2:28:75:a6:f1:b3:98:
                    59:f5:52:95:20:70:78:68:d5:c6:49:6b:b3:c4:74:
                    ff:21:58:1f:be:eb:bc:be:df:be:2f:0f:92:db:de:
                    3c:0f
                Exponent: 65537 (0x10001)
        X509v3 extensions:
            X509v3 Extended Key Usage: 
                TLS Web Server Authentication
            X509v3 CRL Distribution Points: 
                Full Name:
                  URI:http://www.example.com/example_ca.crl
            X509v3 Certificate Policies: 
                Policy: 1.3.6.1.4.1.40808.1.3.2
            X509v3 Subject Key Identifier: 
                98:45:99:DD:DF:B1:68:62:65:83:58:94:B2:D0:D9:41:05:5B:65:C9
            X509v3 Authority Key Identifier: 
                E8:3C:A5:1C:D2:C4:F1:C8:D7:AA:5A:A8:53:6C:A3:B4:AD:CA:EA:72
    Signature Algorithm: sha256WithRSAEncryption
    Signature Value:
        8b:a2:d0:11:a8:fe:fe:10:dc:5c:38:09:52:7f:85:b7:94:c2:
        44:ae:a7:3f:1e:0d:a8:f7:36:70:08:70:2b:bd:0f:65:1a:5e:
        5c:8d:47:91:77:d6:7b:fc:72:a5:aa:e2:a9:45:52:0a:97:34:
        5e:d2:f0:85:4a:9d:0f:54:a8:f1:55:ce:f5:52:64:81:2b:08:
        0b:cf:bc:21:30:03:99:81:e7:1e:23:dd:1e:93:0b:60:6d:35:
        1d:39:56:93:ba:fe:70:dc:38:f5:83:c6:54:2d:72:80:61:5e:
        57:46:ca:b6:dc:49:a6:49:3c:28:85:b7:f6:ac:dd:c3:9d:c4:
        01:db:49:1d:75:3a:60:3b:ab:45:9f:bb:2a:b4:56:03:31:32:
        a4:0d:ec:e9:0d:70:c5:a2:9e:16:c6:ca:af:65:7f:62:75:8a:
        97:b9:4f:3e:e4:9b:4e:e7:65:17:f8:c2:78:3d:4b:3d:f0:71:
        fb:ae:c4:4b:f4:a6:7c:4b:4f:cf:f1:c9:dd:2a:9e:26:dd:9b:
        1a:3b:5b:46:ca:9e:0c:ae:15:3a:1d:06:0c:c7:2b:ca:3a:9c:
        c7:03:02:80:bc:53:46:7f:d8:d8:87:54:0f:d2:fb:1a:08:2e:
        61:d8:46:f0:1f:f9:eb:8a:1e:38:d8:62:53:b3:82:6e:7a:5a:
        a9:89:84:fb
-----BEGIN CERTIFICATE-----
MIIENjCCAx6gAwIBAgIBAzANBgkqhkiG9w0BAQsFADCBkzELMAkGA1UEBhMCRlIx
DzANBgNVBAgMBlJhZGl1czESMBAGA1UEBwwJU29tZXdoZXJlMRUwEwYDVQQKDAxF
eGFtcGxlIEluYy4xIDAeBgkqhkiG9w0BCQEWEWFkbWluQGV4YW1wbGUub3JnMSYw
JAYDVQQDDB1FeGFtcGxlIENlcnRpZmljYXRlIEF1dGhvcml0eTAeFw0yMzA1MDEy
MzA5MjZaFw0yMzA2MzAyMzA5MjZaMHwxCzAJBgNVBAYTAkZSMQ8wDQYDVQQIDAZS
YWRpdXMxFTATBgNVBAoMDEV4YW1wbGUgSW5jLjEjMCEGA1UEAwwaRXhhbXBsZSBT
ZXJ2ZXIgQ2VydGlmaWNhdGUxIDAeBgkqhkiG9w0BCQEWEWFkbWluQGV4YW1wbGUu
b3JnMIIBIjANBgkqhkiG9w0BAQEFAAOCAQ8AMIIBCgKCAQEAujjzJicuYZ4+D5lL
clSxrXk56VSHlYNjM6XmmsBj645cug8Z/9QA4MwRADZ5eLjf9shYN9D0hfosIfDn
gqrsPPzOEu7+caENPm9flPK5RV7jtd7PE5x5AibCTIOv/Jb6u/2a36s3C2Wd+YSe
FpoNdujbsZNfXRwaIHr70Hdy9Cke8e8MokDMeap3oPFcqBElrbN2zQyt9uzqnhTV
gBv5IoJ7/+yB4hpI9stbr9YjP+NJsvggsaxNxThoSp1iFsUAIWV767WQZHUe+l6C
xBfB6q27JprPXuXw2bIodabxs5hZ9VKVIHB4aNXGSWuzxHT/IVgfvuu8vt++Lw+S
2948DwIDAQABo4GqMIGnMBMGA1UdJQQMMAoGCCsGAQUFBwMBMDYGA1UdHwQvMC0w
K6ApoCeGJWh0dHA6Ly93d3cuZXhhbXBsZS5jb20vZXhhbXBsZV9jYS5jcmwwGAYD
VR0gBBEwDzANBgsrBgEEAYK+aAEDAjAdBgNVHQ4EFgQUmEWZ3d+xaGJlg1iUstDZ
QQVbZckwHwYDVR0jBBgwFoAU6DylHNLE8cjXqlqoU2yjtK3K6nIwDQYJKoZIhvcN
AQELBQADggEBAIui0BGo/v4Q3Fw4CVJ/hbeUwkSupz8eDaj3NnAIcCu9D2UaXlyN
R5F31nv8cqWq4qlFUgqXNF7S8IVKnQ9UqPFVzvVSZIErCAvPvCEwA5mB5x4j3R6T
C2BtNR05VpO6/nDcOPWDxlQtcoBhXldGyrbcSaZJPCiFt/as3cOdxAHbSR11OmA7
q0Wfuyq0VgMxMqQN7OkNcMWinhbGyq9lf2J1ipe5Tz7km07nZRf4wng9Sz3wcfuu
xEv0pnxLT8/xyd0qnibdmxo7W0bKngyuFTodBgzHK8o6nMcDAoC8U0Z/2NiHVA/S
+xoILmHYRvAf+euKHjjYYlOzgm56WqmJhPs=
-----END CERTIFICATE-----
