Certificate:
    Data:
        Version: 3 (0x2)
        Serial Number: 4 (0x4)
        Signature Algorithm: sha256WithRSAEncryption
        Issuer: C=FR, ST=Radius, L=Somewhere, O=Example Inc./emailAddress=admin@example.org, CN=Example Certificate Authority
        Validity
            Not Before: May  1 23:09:27 2023 GMT
            Not After : Jun 30 23:09:27 2023 GMT
        Subject: C=FR, ST=Radius, O=Example Inc., CN=user@example.org/emailAddress=user@example.org
        Subject Public Key Info:
            Public Key Algorithm: rsaEncryption
                Public-Key: (2048 bit)
                Modulus:
                    00:b7:3e:c7:af:0c:fd:3a:61:a5:b8:ba:da:7f:4f:
                    db:f2:70:db:09:52:53:34:34:0a:c0:ad:48:9b:d6:
                    38:d4:8c:de:6b:25:8d:3b:47:c2:ad:60:a8:e4:e6:
                    b1:04:4b:ba:c0:20:28:e9:df:d3:15:4f:78:9b:83:
                    84:a0:fa:bd:fd:67:79:a2:c2:5e:d9:b1:04:dc:6e:
                    5a:07:0e:dd:10:df:7d:10:e7:1d:ee:e0:bd:b8:8f:
                    08:93:52:c4:dd:fc:e1:dd:8a:6e:85:b8:69:9c:fc:
                    68:66:a7:1d:13:f7:ed:3a:47:c0:3d:e4:2d:6e:ab:
                    54:dd:22:6f:96:dc:6f:76:3b:dc:98:4e:52:76:22:
                    70:ea:15:7d:03:33:04:62:f9:9c:2d:f2:53:ea:7b:
                    0e:59:b6:35:d6:98:bd:7a:58:82:ba:51:0e:e5:79:
                    08:63:20:2b:ad:a1:c7:0a:8f:79:5f:43:9b:3d:64:
                    a4:9a:e6:db:f2:f7:15:6f:6a:e0:22:27:b2:b6:4c:
                    fe:3f:45:fc:6d:d0:83:0d:00:31:0a:6f:95:93:45:
                    25:31:a1:40:05:32:82:d9:0a:9b:9c:91:ef:b5:46:
                    4b:6d:ca:aa:8b:5a:3f:67:a7:e1:54:14:fc:c5:71:
                    55:a2:21:25:49:82:0a:bb:82:e1:c1:75:5b:4e:40:
                    a4:97
                Exponent: 65537 (0x10001)
        X509v3 extensions:
            X509v3 Extended Key Usage: 
                TLS Web Client Authentication
            X509v3 CRL Distribution Points: 
                Full Name:
                  URI:http://www.example.com/example_ca.crl
            X509v3 Subject Key Identifier: 
                38:25:C6:D9:CC:D5:CC:45:C2:37:8D:92:40:9C:59:44:8B:A4:6C:DA
            X509v3 Authority Key Identifier: 
                E8:3C:A5:1C:D2:C4:F1:C8:D7:AA:5A:A8:53:6C:A3:B4:AD:CA:EA:72
    Signature Algorithm: sha256WithRSAEncryption
    Signature Value:
        b8:81:27:86:ac:26:3b:11:48:db:05:ae:a6:c9:f4:a5:f6:84:
        a0:58:2e:89:08:52:34:67:5c:c8:da:33:1c:aa:34:10:7f:4e:
        fc:26:c0:64:41:6f:ec:d5:e7:28:af:1c:8d:ed:f6:a0:e1:7f:
        41:84:97:00:68:55:8c:7c:35:af:5a:44:2c:93:78:d1:a7:b3:
        36:67:e5:b6:5e:4a:5c:32:9d:36:44:1c:b3:96:2c:f1:69:fa:
        92:5a:80:6c:26:d2:2c:49:82:42:0b:37:98:3b:b5:30:86:e9:
        68:ec:31:be:a6:c1:e5:41:81:61:f2:7d:1e:8c:a4:0d:5c:f4:
        ba:e5:99:e9:82:7f:c9:8a:c4:b8:fb:2a:55:e7:bf:c6:09:be:
        4c:5d:16:c6:78:55:53:2a:ba:6b:3c:bc:e7:dc:45:4a:82:48:
        77:96:c6:3d:fd:f6:85:4c:8b:9b:4f:0e:5b:a9:be:af:18:62:
        b8:a2:a2:a8:3a:f3:42:64:8e:43:a8:1d:be:3b:60:67:98:c4:
        3b:95:58:ef:08:6c:d3:b9:f8:42:c6:b6:df:e8:b3:ca:e0:0c:
        5e:dc:6d:df:b9:09:b0:6e:9f:bd:f1:22:8b:2d:f9:f3:6e:38:
        a4:99:e5:68:46:99:ed:7b:88:3e:f5:15:2a:4f:26:4c:3f:16:
        00:51:f0:95
-----BEGIN CERTIFICATE-----
MIIEETCCAvmgAwIBAgIBBDANBgkqhkiG9w0BAQsFADCBkzELMAkGA1UEBhMCRlIx
DzANBgNVBAgMBlJhZGl1czESMBAGA1UEBwwJU29tZXdoZXJlMRUwEwYDVQQKDAxF
eGFtcGxlIEluYy4xIDAeBgkqhkiG9w0BCQEWEWFkbWluQGV4YW1wbGUub3JnMSYw
JAYDVQQDDB1FeGFtcGxlIENlcnRpZmljYXRlIEF1dGhvcml0eTAeFw0yMzA1MDEy
MzA5MjdaFw0yMzA2MzAyMzA5MjdaMHExCzAJBgNVBAYTAkZSMQ8wDQYDVQQIDAZS
YWRpdXMxFTATBgNVBAoMDEV4YW1wbGUgSW5jLjEZMBcGA1UEAwwQdXNlckBleGFt
cGxlLm9yZzEfMB0GCSqGSIb3DQEJARYQdXNlckBleGFtcGxlLm9yZzCCASIwDQYJ
KoZIhvcNAQEBBQADggEPADCCAQoCggEBALc+x68M/Tphpbi62n9P2/Jw2wlSUzQ0
CsCtSJvWONSM3msljTtHwq1gqOTmsQRLusAgKOnf0xVPeJuDhKD6vf1neaLCXtmx
BNxuWgcO3RDffRDnHe7gvbiPCJNSxN384d2KboW4aZz8aGanHRP37TpHwD3kLW6r
VN0ib5bcb3Y73JhOUnYicOoVfQMzBGL5nC3yU+p7Dlm2NdaYvXpYgrpRDuV5CGMg
K62hxwqPeV9Dmz1kpJrm2/L3FW9q4CInsrZM/j9F/G3Qgw0AMQpvlZNFJTGhQAUy
gtkKm5yR77VGS23KqotaP2en4VQU/MVxVaIhJUmCCruC4cF1W05ApJcCAwEAAaOB
kDCBjTATBgNVHSUEDDAKBggrBgEFBQcDAjA2BgNVHR8ELzAtMCugKaAnhiVodHRw
Oi8vd3d3LmV4YW1wbGUuY29tL2V4YW1wbGVfY2EuY3JsMB0GA1UdDgQWBBQ4JcbZ
zNXMRcI3jZJAnFlEi6Rs2jAfBgNVHSMEGDAWgBToPKUc0sTxyNeqWqhTbKO0rcrq
cjANBgkqhkiG9w0BAQsFAAOCAQEAuIEnhqwmOxFI2wWupsn0pfaEoFguiQhSNGdc
yNozHKo0EH9O/CbAZEFv7NXnKK8cje32oOF/QYSXAGhVjHw1r1pELJN40aezNmfl
tl5KXDKdNkQcs5Ys8Wn6klqAbCbSLEmCQgs3mDu1MIbpaOwxvqbB5UGBYfJ9Hoyk
DVz0uuWZ6YJ/yYrEuPsqVee/xgm+TF0WxnhVUyq6azy859xFSoJId5bGPf32hUyL
m08OW6m+rxhiuKKiqDrzQmSOQ6gdvjtgZ5jEO5VY7whs07n4Qsa23+izyuAMXtxt
37kJsG6fvfEiiy358244pJnlaEaZ7XuIPvUVKk8mTD8WAFHwlQ==
-----END CERTIFICATE-----
